target datalayout = "e-m:e-p270:32:32-p271:32:32-p272:64:64-i64:64-i128:128-f80:128-n8:16:32:64-S128"
target triple = "x86_64-pc-linux-gnu"

%struct.H5O_loc_t = type { ptr, i64, i8 }
%struct.H5A_t = type { %struct.H5O_shared_t, %struct.H5O_loc_t, i8, %struct.H5G_name_t, ptr }
%struct.H5O_shared_t = type { i32, ptr, i32, %union.anon }
%union.anon = type { %struct.H5O_mesg_loc_t }
%struct.H5O_mesg_loc_t = type { i32, i64 }
%struct.H5G_name_t = type { ptr, ptr, i32 }
%struct.H5A_shared_t = type { i8, ptr, i32, ptr, i64, ptr, i64, ptr, i64, i32, i32 }

@.str.3 = private unnamed_addr constant [100 x i8] c"generated/home/dtcxzyw/WorkSpace/Projects/compilers/llvm-opt-benchmark/bench/hdf5/hdf5/src/H5Aint.c\00", align 1
@H5E_ATTR_g = external global i64, align 8
@H5E_CANTINIT_g = external global i64, align 8
@__func__.H5A_get_space = private unnamed_addr constant [14 x i8] c"H5A_get_space\00", align 1
@.str.39 = private unnamed_addr constant [25 x i8] c"unable to copy dataspace\00", align 1
@H5E_ID_g = external global i64, align 8
@H5E_CANTREGISTER_g = external global i64, align 8
@.str.40 = private unnamed_addr constant [32 x i8] c"unable to register dataspace ID\00", align 1
@H5E_CLOSEERROR_g = external global i64, align 8
@.str.41 = private unnamed_addr constant [28 x i8] c"unable to release dataspace\00", align 1

; Function Attrs: nounwind uwtable
define i64 @H5A_get_space(ptr noundef %0) #0 {
  %2 = alloca ptr, align 8
  %3 = alloca ptr, align 8
  %4 = alloca i64, align 8
  %5 = alloca i8, align 1
  store ptr %0, ptr %2, align 8
  store ptr null, ptr %3, align 8
  store i64 -1, ptr %4, align 8
  store i8 0, ptr %5, align 1
  %6 = load ptr, ptr %2, align 8
  %7 = getelementptr inbounds %struct.H5A_t, ptr %6, i32 0, i32 4
  %8 = load ptr, ptr %7, align 8
  %9 = getelementptr inbounds %struct.H5A_shared_t, ptr %8, i32 0, i32 5
  %10 = load ptr, ptr %9, align 8
  %11 = call ptr @H5S_copy(ptr noundef %10, i1 noundef zeroext false, i1 noundef zeroext true)
  store ptr %11, ptr %3, align 8
  %12 = icmp eq ptr null, %11
  br i1 %12, label %13, label %28

13:                                               ; preds = %1
  br label %14

14:                                               ; preds = %13
  br label %15

15:                                               ; preds = %14
  br label %16

16:                                               ; preds = %15
  %17 = load i64, ptr @H5E_ATTR_g, align 8
  %18 = load i64, ptr @H5E_CANTINIT_g, align 8
  %19 = call i32 (ptr, ptr, i32, i64, i64, ptr, ...) @H5E_printf_stack(ptr noundef @.str.3, ptr noundef @__func__.H5A_get_space, i32 noundef 967, i64 noundef %17, i64 noundef %18, ptr noundef @.str.39)
  br label %20

20:                                               ; preds = %16
  store i8 1, ptr %5, align 1
  %21 = load i8, ptr %5, align 1
  %22 = trunc i8 %21 to i1
  %23 = zext i1 %22 to i8
  store i8 %23, ptr %5, align 1
  br label %24

24:                                               ; preds = %20
  br label %25

25:                                               ; preds = %24
  store i64 -1, ptr %4, align 8
  br label %48

26:                                               ; No predecessors!
  br label %27

27:                                               ; preds = %26
  br label %28

28:                                               ; preds = %27, %1
  %29 = load ptr, ptr %3, align 8
  %30 = call i64 @H5I_register(i32 noundef 4, ptr noundef %29, i1 noundef zeroext true)
  store i64 %30, ptr %4, align 8
  %31 = icmp slt i64 %30, 0
  br i1 %31, label %32, label %47

32:                                               ; preds = %28
  br label %33

33:                                               ; preds = %32
  br label %34

34:                                               ; preds = %33
  br label %35

35:                                               ; preds = %34
  %36 = load i64, ptr @H5E_ID_g, align 8
  %37 = load i64, ptr @H5E_CANTREGISTER_g, align 8
  %38 = call i32 (ptr, ptr, i32, i64, i64, ptr, ...) @H5E_printf_stack(ptr noundef @.str.3, ptr noundef @__func__.H5A_get_space, i32 noundef 971, i64 noundef %36, i64 noundef %37, ptr noundef @.str.40)
  br label %39

39:                                               ; preds = %35
  store i8 1, ptr %5, align 1
  %40 = load i8, ptr %5, align 1
  %41 = trunc i8 %40 to i1
  %42 = zext i1 %41 to i8
  store i8 %42, ptr %5, align 1
  br label %43

43:                                               ; preds = %39
  br label %44

44:                                               ; preds = %43
  store i64 -1, ptr %4, align 8
  br label %48

45:                                               ; No predecessors!
  br label %46

46:                                               ; preds = %45
  br label %47

47:                                               ; preds = %46, %28
  br label %48

48:                                               ; preds = %47, %44, %25
  %49 = load i64, ptr %4, align 8
  %50 = icmp eq i64 -1, %49
  br i1 %50, label %51, label %71

51:                                               ; preds = %48
  %52 = load ptr, ptr %3, align 8
  %53 = icmp ne ptr %52, null
  br i1 %53, label %54, label %71

54:                                               ; preds = %51
  %55 = load ptr, ptr %3, align 8
  %56 = call i32 @H5S_close(ptr noundef %55)
  %57 = icmp slt i32 %56, 0
  br i1 %57, label %58, label %71

58:                                               ; preds = %54
  br label %59

59:                                               ; preds = %58
  br label %60

60:                                               ; preds = %59
  br label %61

61:                                               ; preds = %60
  %62 = load i64, ptr @H5E_ATTR_g, align 8
  %63 = load i64, ptr @H5E_CLOSEERROR_g, align 8
  %64 = call i32 (ptr, ptr, i32, i64, i64, ptr, ...) @H5E_printf_stack(ptr noundef @.str.3, ptr noundef @__func__.H5A_get_space, i32 noundef 975, i64 noundef %62, i64 noundef %63, ptr noundef @.str.41)
  br label %65

65:                                               ; preds = %61
  store i8 1, ptr %5, align 1
  %66 = load i8, ptr %5, align 1
  %67 = trunc i8 %66 to i1
  %68 = zext i1 %67 to i8
  store i8 %68, ptr %5, align 1
  br label %69

69:                                               ; preds = %65
  store i64 -1, ptr %4, align 8
  br label %70

70:                                               ; preds = %69
  br label %71

71:                                               ; preds = %70, %54, %51, %48
  %72 = load i64, ptr %4, align 8
  ret i64 %72
}