; Function Attrs: nounwind uwtable
define range(i64 -1, -9223372036854775808) i64 @H5A_get_space(ptr nocapture noundef readonly %0) local_unnamed_addr #0 {
  %2 = getelementptr inbounds i8, ptr %0, i64 96
  %3 = load ptr, ptr %2, align 8
  %4 = getelementptr inbounds i8, ptr %3, i64 40
  %5 = load ptr, ptr %4, align 8
  %6 = tail call ptr @H5S_copy(ptr noundef %5, i1 noundef zeroext false, i1 noundef zeroext true) #13
  %7 = icmp eq ptr %6, null
  br i1 %7, label %8, label %12

8:                                                ; preds = %1
  %9 = load i64, ptr @H5E_ATTR_g, align 8
  %10 = load i64, ptr @H5E_CANTINIT_g, align 8
  %11 = tail call i32 (ptr, ptr, i32, i64, i64, ptr, ...) @H5E_printf_stack(ptr noundef nonnull @.str.3, ptr noundef nonnull @__func__.H5A_get_space, i32 noundef 967, i64 noundef %9, i64 noundef %10, ptr noundef nonnull @.str.39) #13
  br label %.thread

12:                                               ; preds = %1
  %13 = tail call i64 @H5I_register(i32 noundef 4, ptr noundef nonnull %6, i1 noundef zeroext true) #13
  %14 = icmp slt i64 %13, 0
  br i1 %14, label %15, label %.thread

15:                                               ; preds = %12
  %16 = load i64, ptr @H5E_ID_g, align 8
  %17 = load i64, ptr @H5E_CANTREGISTER_g, align 8
  %18 = tail call i32 (ptr, ptr, i32, i64, i64, ptr, ...) @H5E_printf_stack(ptr noundef nonnull @.str.3, ptr noundef nonnull @__func__.H5A_get_space, i32 noundef 971, i64 noundef %16, i64 noundef %17, ptr noundef nonnull @.str.40) #13
  %19 = tail call i32 @H5S_close(ptr noundef nonnull %6) #13
  %20 = icmp slt i32 %19, 0
  br i1 %20, label %21, label %.thread

21:                                               ; preds = %15
  %22 = load i64, ptr @H5E_ATTR_g, align 8
  %23 = load i64, ptr @H5E_CLOSEERROR_g, align 8
  %24 = tail call i32 (ptr, ptr, i32, i64, i64, ptr, ...) @H5E_printf_stack(ptr noundef nonnull @.str.3, ptr noundef nonnull @__func__.H5A_get_space, i32 noundef 975, i64 noundef %22, i64 noundef %23, ptr noundef nonnull @.str.41) #13
  br label %.thread

.thread:                                          ; preds = %8, %12, %21, %15
  %.1 = phi i64 [ -1, %21 ], [ -1, %15 ], [ %13, %12 ], [ -1, %8 ]
  ret i64 %.1
}